target datalayout = "e-m:e-p270:32:32-p271:32:32-p272:64:64-i64:64-i128:128-f80:128-n8:16:32:64-S128"
target triple = "x86_64-pc-linux-gnu"

%struct.IndexScanDescData = type { ptr, ptr, ptr, i32, i32, ptr, ptr, i8, i8, i8, i8, i8, ptr, ptr, ptr, ptr, ptr, %struct.ItemPointerData, i8, ptr, i8, ptr, ptr, i8, ptr }
%struct.ItemPointerData = type { %struct.BlockIdData, i16 }
%struct.BlockIdData = type { i16, i16 }

; Function Attrs: nounwind uwtable
define dso_local zeroext i1 @index_getnext_slot(ptr noundef %0, i32 noundef %1, ptr noundef %2) #0 {
  %4 = alloca i1, align 1
  %5 = alloca ptr, align 8
  %6 = alloca i32, align 4
  %7 = alloca ptr, align 8
  %8 = alloca ptr, align 8
  %9 = alloca i32, align 4
  store ptr %0, ptr %5, align 8
  store i32 %1, ptr %6, align 4
  store ptr %2, ptr %7, align 8
  br label %10

10:                                               ; preds = %31, %3
  %11 = load ptr, ptr %5, align 8
  %12 = getelementptr inbounds nuw %struct.IndexScanDescData, ptr %11, i32 0, i32 18
  %13 = load i8, ptr %12, align 2, !range !4, !noundef !5
  %14 = trunc i8 %13 to i1
  br i1 %14, label %26, label %15

15:                                               ; preds = %10
  call void @llvm.lifetime.start.p0(i64 8, ptr %8) #7
  %16 = load ptr, ptr %5, align 8
  %17 = load i32, ptr %6, align 4
  %18 = call ptr @index_getnext_tid(ptr noundef %16, i32 noundef %17)
  store ptr %18, ptr %8, align 8
  %19 = load ptr, ptr %8, align 8
  %20 = icmp eq ptr %19, null
  br i1 %20, label %21, label %22

21:                                               ; preds = %15
  store i32 2, ptr %9, align 4
  br label %23

22:                                               ; preds = %15
  store i32 0, ptr %9, align 4
  br label %23

23:                                               ; preds = %22, %21
  call void @llvm.lifetime.end.p0(i64 8, ptr %8) #7
  %24 = load i32, ptr %9, align 4
  switch i32 %24, label %35 [
    i32 0, label %25
    i32 2, label %32
  ]

25:                                               ; preds = %23
  br label %26

26:                                               ; preds = %25, %10
  %27 = load ptr, ptr %5, align 8
  %28 = load ptr, ptr %7, align 8
  %29 = call zeroext i1 @index_fetch_heap(ptr noundef %27, ptr noundef %28)
  br i1 %29, label %30, label %31

30:                                               ; preds = %26
  store i1 true, ptr %4, align 1
  br label %33

31:                                               ; preds = %26
  br label %10

32:                                               ; preds = %23
  store i1 false, ptr %4, align 1
  br label %33

33:                                               ; preds = %32, %30
  %34 = load i1, ptr %4, align 1
  ret i1 %34

35:                                               ; preds = %23
  unreachable
}