; Function Attrs: nounwind uwtable
define dso_local noundef zeroext i1 @index_getnext_slot(ptr noundef %0, i32 noundef %1, ptr noundef %2) local_unnamed_addr #0 {
  %4 = getelementptr inbounds nuw i8, ptr %0, i64 102
  br label %5

5:                                                ; preds = %11, %3
  %6 = load i8, ptr %4, align 2, !range !5, !noundef !6
  %7 = trunc nuw i8 %6 to i1
  br i1 %7, label %11, label %8

8:                                                ; preds = %5
  %9 = tail call ptr @index_getnext_tid(ptr noundef nonnull %0, i32 noundef %1)
  %10 = icmp eq ptr %9, null
  br i1 %10, label %13, label %11

11:                                               ; preds = %8, %5
  %12 = tail call zeroext i1 @index_fetch_heap(ptr noundef nonnull %0, ptr noundef %2)
  br i1 %12, label %13, label %5

13:                                               ; preds = %8, %11
  %.07 = phi i1 [ true, %11 ], [ false, %8 ]
  ret i1 %.07
}